target datalayout = "e-m:e-p270:32:32-p271:32:32-p272:64:64-i64:64-i128:128-f80:128-n8:16:32:64-S128"
target triple = "x86_64-pc-linux-gnu"

%struct.ueid_frame_t = type { i32, i16 }

; Function Attrs: nounwind null_pointer_is_valid sspstrong uwtable
define internal i32 @pdcp_lte_ueid_frame_hash_func(ptr noundef %0) #5 {
  %2 = alloca ptr, align 8
  %3 = alloca ptr, align 8
  store ptr %0, ptr %2, align 8
  call void @llvm.lifetime.start.p0(i64 8, ptr %3) #15
  %4 = load ptr, ptr %2, align 8
  store ptr %4, ptr %3, align 8
  %5 = load ptr, ptr %3, align 8
  %6 = getelementptr inbounds nuw %struct.ueid_frame_t, ptr %5, i32 0, i32 0
  %7 = load i32, ptr %6, align 4
  %8 = load ptr, ptr %3, align 8
  %9 = getelementptr inbounds nuw %struct.ueid_frame_t, ptr %8, i32 0, i32 1
  %10 = load i16, ptr %9, align 4
  %11 = zext i16 %10 to i32
  %12 = mul i32 100, %11
  %13 = add i32 %7, %12
  call void @llvm.lifetime.end.p0(i64 8, ptr %3) #15
  ret i32 %13
}