; Function Attrs: mustprogress nofree norecurse nosync nounwind null_pointer_is_valid sspstrong willreturn memory(argmem: read) uwtable
define internal i32 @pdcp_lte_ueid_frame_hash_func(ptr noundef readonly captures(none) %0) #6 {
  %2 = load i32, ptr %0, align 4
  %3 = getelementptr inbounds nuw i8, ptr %0, i64 4
  %4 = load i16, ptr %3, align 4
  %5 = zext i16 %4 to i32
  %6 = mul nuw nsw i32 %5, 100
  %7 = add i32 %6, %2
  ret i32 %7
}